; Function Attrs: mustprogress uwtable
define void @_ZN5boost3log11v2_mt_posix5sinks22text_multifile_backend9constructENS2_17auto_newline_modeE(ptr nocapture noundef nonnull writeonly align 8 dereferenceable(8) %0, i32 noundef %1) local_unnamed_addr #3 align 2 personality ptr @__gxx_personality_v0 {
  %3 = tail call noalias noundef nonnull dereferenceable(560) ptr @_Znwm(i64 noundef 560) #20
  store ptr null, ptr %3, align 8, !tbaa !3
  %4 = getelementptr inbounds nuw i8, ptr %3, i64 8
  invoke void @_ZN5boost10filesystem6detail12current_pathEPNS_6system10error_codeE(ptr dead_on_unwind nonnull writable sret(%"class.boost::filesystem::path") align 8 %4, ptr noundef null)
          to label %_ZN5boost10filesystem12current_pathEv.exit.i unwind label %6

_ZN5boost10filesystem12current_pathEv.exit.i:     ; preds = %2
  %5 = getelementptr inbounds nuw i8, ptr %3, i64 40
  invoke void @_ZN5boost10filesystem14basic_ofstreamIcSt11char_traitsIcEEC1Ev(ptr noundef nonnull align 8 dereferenceable(248) %5)
          to label %26 unwind label %8

6:                                                ; preds = %2
  %7 = landingpad { ptr, i32 }
          cleanup
  br label %_ZN5boost10filesystem4pathD2Ev.exit.i

8:                                                ; preds = %_ZN5boost10filesystem12current_pathEv.exit.i
  %9 = landingpad { ptr, i32 }
          cleanup
  %10 = load ptr, ptr %4, align 8, !tbaa !8
  %11 = getelementptr inbounds nuw i8, ptr %3, i64 24
  %12 = icmp eq ptr %10, %11
  br i1 %12, label %_ZNKSt7__cxx1112basic_stringIcSt11char_traitsIcESaIcEE11_M_is_localEv.exit.thread.i.i.i.i, label %_ZNKSt7__cxx1112basic_stringIcSt11char_traitsIcESaIcEE11_M_is_localEv.exit.i.i.i.i

_ZNKSt7__cxx1112basic_stringIcSt11char_traitsIcESaIcEE11_M_is_localEv.exit.thread.i.i.i.i: ; preds = %8
  %13 = getelementptr inbounds nuw i8, ptr %3, i64 16
  %14 = load i64, ptr %13, align 8, !tbaa !12
  %15 = icmp ult i64 %14, 16
  tail call void @llvm.assume(i1 %15)
  br label %_ZN5boost10filesystem4pathD2Ev.exit.i

_ZNKSt7__cxx1112basic_stringIcSt11char_traitsIcESaIcEE11_M_is_localEv.exit.i.i.i.i: ; preds = %8
  %16 = load i64, ptr %11, align 8, !tbaa !13
  %17 = add i64 %16, 1
  tail call void @_ZdlPvm(ptr noundef %10, i64 noundef %17) #21
  br label %_ZN5boost10filesystem4pathD2Ev.exit.i

_ZN5boost10filesystem4pathD2Ev.exit.i:            ; preds = %_ZNKSt7__cxx1112basic_stringIcSt11char_traitsIcESaIcEE11_M_is_localEv.exit.i.i.i.i, %_ZNKSt7__cxx1112basic_stringIcSt11char_traitsIcESaIcEE11_M_is_localEv.exit.thread.i.i.i.i, %6
  %.pn.i = phi { ptr, i32 } [ %7, %6 ], [ %9, %_ZNKSt7__cxx1112basic_stringIcSt11char_traitsIcESaIcEE11_M_is_localEv.exit.thread.i.i.i.i ], [ %9, %_ZNKSt7__cxx1112basic_stringIcSt11char_traitsIcESaIcEE11_M_is_localEv.exit.i.i.i.i ]
  %18 = load ptr, ptr %3, align 8, !tbaa !3
  %.not.i.i.i = icmp eq ptr %18, null
  br i1 %.not.i.i.i, label %.body, label %19

19:                                               ; preds = %_ZN5boost10filesystem4pathD2Ev.exit.i
  %20 = getelementptr inbounds nuw i8, ptr %18, i64 16
  %21 = load ptr, ptr %20, align 8, !tbaa !14
  invoke void %21(ptr noundef nonnull %18)
          to label %22 unwind label %23

22:                                               ; preds = %19
  store ptr null, ptr %3, align 8, !tbaa !3
  br label %.body

23:                                               ; preds = %19
  %24 = landingpad { ptr, i32 }
          catch ptr null
  %25 = extractvalue { ptr, i32 } %24, 0
  tail call void @__clang_call_terminate(ptr %25) #19
  unreachable

26:                                               ; preds = %_ZN5boost10filesystem12current_pathEv.exit.i
  %27 = getelementptr inbounds nuw i8, ptr %3, i64 552
  store i32 %1, ptr %27, align 8, !tbaa !16
  store ptr %3, ptr %0, align 8, !tbaa !31
  ret void

.body:                                            ; preds = %_ZN5boost10filesystem4pathD2Ev.exit.i, %22
  tail call void @_ZdlPvm(ptr noundef nonnull %3, i64 noundef 560) #21
  resume { ptr, i32 } %.pn.i
}